target datalayout = "e-m:e-p270:32:32-p271:32:32-p272:64:64-i64:64-i128:128-f80:128-n8:16:32:64-S128"
target triple = "x86_64-pc-linux-gnu"

%"class.icu_77::UObject" = type { ptr }
%"class.icu_77::StringTrieBuilder::Node" = type { %"class.icu_77::UObject", i32, i32 }
%"class.icu_77::StringTrieBuilder::BranchNode.base" = type <{ %"class.icu_77::StringTrieBuilder::Node", i32 }>
%"class.icu_77::StringTrieBuilder::SplitBranchNode" = type { %"class.icu_77::StringTrieBuilder::BranchNode.base", i16, ptr, ptr }
%"class.std::type_info" = type { ptr, ptr }

; Function Attrs: mustprogress nounwind uwtable
define linkonce_odr noundef ptr @_ZNKSt9type_info4nameEv(ptr noundef nonnull align 8 dereferenceable(16) %0) #0 comdat align 2 {
  %2 = alloca ptr, align 8
  store ptr %0, ptr %2, align 8, !tbaa !72
  %3 = load ptr, ptr %2, align 8
  %4 = getelementptr inbounds nuw %"class.std::type_info", ptr %3, i32 0, i32 1
  %5 = load ptr, ptr %4, align 8, !tbaa !74
  %6 = getelementptr inbounds i8, ptr %5, i64 0
  %7 = load i8, ptr %6, align 1, !tbaa !21
  %8 = sext i8 %7 to i32
  %9 = icmp eq i32 %8, 42
  br i1 %9, label %10, label %14

10:                                               ; preds = %1
  %11 = getelementptr inbounds nuw %"class.std::type_info", ptr %3, i32 0, i32 1
  %12 = load ptr, ptr %11, align 8, !tbaa !74
  %13 = getelementptr inbounds i8, ptr %12, i64 1
  br label %17

14:                                               ; preds = %1
  %15 = getelementptr inbounds nuw %"class.std::type_info", ptr %3, i32 0, i32 1
  %16 = load ptr, ptr %15, align 8, !tbaa !74
  br label %17

17:                                               ; preds = %14, %10
  %18 = phi ptr [ %13, %10 ], [ %16, %14 ]
  ret ptr %18
}

; Function Attrs: inlinehint mustprogress nounwind uwtable
define linkonce_odr noundef zeroext i1 @_ZNKSt9type_infoeqERKS_(ptr noundef nonnull align 8 dereferenceable(16) %0, ptr noundef nonnull align 8 dereferenceable(16) %1) #1 comdat align 2 {
  %3 = alloca i1, align 1
  %4 = alloca ptr, align 8
  %5 = alloca ptr, align 8
  store ptr %0, ptr %4, align 8, !tbaa !72
  store ptr %1, ptr %5, align 8, !tbaa !72
  %6 = load ptr, ptr %4, align 8
  %7 = getelementptr inbounds nuw %"class.std::type_info", ptr %6, i32 0, i32 1
  %8 = load ptr, ptr %7, align 8, !tbaa !74
  %9 = load ptr, ptr %5, align 8, !tbaa !72
  %10 = getelementptr inbounds nuw %"class.std::type_info", ptr %9, i32 0, i32 1
  %11 = load ptr, ptr %10, align 8, !tbaa !74
  %12 = icmp eq ptr %8, %11
  br i1 %12, label %13, label %14

13:                                               ; preds = %2
  store i1 true, ptr %3, align 1
  br label %30

14:                                               ; preds = %2
  %15 = getelementptr inbounds nuw %"class.std::type_info", ptr %6, i32 0, i32 1
  %16 = load ptr, ptr %15, align 8, !tbaa !74
  %17 = getelementptr inbounds i8, ptr %16, i64 0
  %18 = load i8, ptr %17, align 1, !tbaa !21
  %19 = sext i8 %18 to i32
  %20 = icmp ne i32 %19, 42
  br i1 %20, label %21, label %28

21:                                               ; preds = %14
  %22 = getelementptr inbounds nuw %"class.std::type_info", ptr %6, i32 0, i32 1
  %23 = load ptr, ptr %22, align 8, !tbaa !74
  %24 = load ptr, ptr %5, align 8, !tbaa !72
  %25 = call noundef ptr @_ZNKSt9type_info4nameEv(ptr noundef nonnull align 8 dereferenceable(16) %24) #9
  %26 = call i32 @strcmp(ptr noundef %23, ptr noundef %25) #9
  %27 = icmp eq i32 %26, 0
  br label %28

28:                                               ; preds = %21, %14
  %29 = phi i1 [ false, %14 ], [ %27, %21 ]
  store i1 %29, ptr %3, align 1
  br label %30

30:                                               ; preds = %28, %13
  %31 = load i1, ptr %3, align 1
  ret i1 %31
}

; Function Attrs: mustprogress uwtable
define noundef zeroext i1 @_ZNK6icu_7717StringTrieBuilder4NodeeqERKS1_(ptr noundef nonnull align 8 dereferenceable(16) %0, ptr noundef nonnull align 8 dereferenceable(16) %1) unnamed_addr #2 align 2 {
  %3 = alloca ptr, align 8
  %4 = alloca ptr, align 8
  store ptr %0, ptr %3, align 8, !tbaa !24
  store ptr %1, ptr %4, align 8, !tbaa !24
  %5 = load ptr, ptr %3, align 8
  %6 = load ptr, ptr %4, align 8, !tbaa !24
  %7 = icmp eq ptr %5, %6
  br i1 %7, label %29, label %8

8:                                                ; preds = %2
  %9 = icmp eq ptr %5, null
  br i1 %9, label %10, label %11

10:                                               ; preds = %8
  call void @__cxa_bad_typeid() #11
  unreachable

11:                                               ; preds = %8
  %12 = load ptr, ptr %5, align 8, !tbaa !8
  %13 = getelementptr inbounds ptr, ptr %12, i64 -1
  %14 = load ptr, ptr %13, align 8
  %15 = load ptr, ptr %4, align 8, !tbaa !24
  %16 = load ptr, ptr %15, align 8, !tbaa !8
  %17 = getelementptr inbounds ptr, ptr %16, i64 -1
  %18 = load ptr, ptr %17, align 8
  %19 = call noundef zeroext i1 @_ZNKSt9type_infoeqERKS_(ptr noundef nonnull align 8 dereferenceable(16) %14, ptr noundef nonnull align 8 dereferenceable(16) %18) #9
  br i1 %19, label %20, label %27

20:                                               ; preds = %11
  %21 = getelementptr inbounds nuw %"class.icu_77::StringTrieBuilder::Node", ptr %5, i32 0, i32 1
  %22 = load i32, ptr %21, align 8, !tbaa !54
  %23 = load ptr, ptr %4, align 8, !tbaa !24
  %24 = getelementptr inbounds nuw %"class.icu_77::StringTrieBuilder::Node", ptr %23, i32 0, i32 1
  %25 = load i32, ptr %24, align 8, !tbaa !54
  %26 = icmp eq i32 %22, %25
  br label %27

27:                                               ; preds = %20, %11
  %28 = phi i1 [ false, %11 ], [ %26, %20 ]
  br label %29

29:                                               ; preds = %27, %2
  %30 = phi i1 [ true, %2 ], [ %28, %27 ]
  ret i1 %30
}

; Function Attrs: mustprogress uwtable
define noundef zeroext i1 @_ZNK6icu_7717StringTrieBuilder15SplitBranchNodeeqERKNS0_4NodeE(ptr noundef nonnull align 8 dereferenceable(40) %0, ptr noundef nonnull align 8 dereferenceable(16) %1) unnamed_addr #2 align 2 {
  %3 = alloca i1, align 1
  %4 = alloca ptr, align 8
  %5 = alloca ptr, align 8
  %6 = alloca ptr, align 8
  store ptr %0, ptr %4, align 8, !tbaa !62
  store ptr %1, ptr %5, align 8, !tbaa !24
  %7 = load ptr, ptr %4, align 8
  %8 = load ptr, ptr %5, align 8, !tbaa !24
  %9 = icmp eq ptr %7, %8
  br i1 %9, label %10, label %11

10:                                               ; preds = %2
  store i1 true, ptr %3, align 1
  br label %41

11:                                               ; preds = %2
  %12 = load ptr, ptr %5, align 8, !tbaa !24
  %13 = call noundef zeroext i1 @_ZNK6icu_7717StringTrieBuilder4NodeeqERKS1_(ptr noundef nonnull align 8 dereferenceable(16) %7, ptr noundef nonnull align 8 dereferenceable(16) %12)
  br i1 %13, label %15, label %14

14:                                               ; preds = %11
  store i1 false, ptr %3, align 1
  br label %41

15:                                               ; preds = %11
  call void @llvm.lifetime.start.p0(i64 8, ptr %6) #9
  %16 = load ptr, ptr %5, align 8, !tbaa !24
  store ptr %16, ptr %6, align 8, !tbaa !62
  %17 = getelementptr inbounds nuw %"class.icu_77::StringTrieBuilder::SplitBranchNode", ptr %7, i32 0, i32 1
  %18 = load i16, ptr %17, align 4, !tbaa !64
  %19 = zext i16 %18 to i32
  %20 = load ptr, ptr %6, align 8, !tbaa !62
  %21 = getelementptr inbounds nuw %"class.icu_77::StringTrieBuilder::SplitBranchNode", ptr %20, i32 0, i32 1
  %22 = load i16, ptr %21, align 4, !tbaa !64
  %23 = zext i16 %22 to i32
  %24 = icmp eq i32 %19, %23
  br i1 %24, label %25, label %39

25:                                               ; preds = %15
  %26 = getelementptr inbounds nuw %"class.icu_77::StringTrieBuilder::SplitBranchNode", ptr %7, i32 0, i32 2
  %27 = load ptr, ptr %26, align 8, !tbaa !66
  %28 = load ptr, ptr %6, align 8, !tbaa !62
  %29 = getelementptr inbounds nuw %"class.icu_77::StringTrieBuilder::SplitBranchNode", ptr %28, i32 0, i32 2
  %30 = load ptr, ptr %29, align 8, !tbaa !66
  %31 = icmp eq ptr %27, %30
  br i1 %31, label %32, label %39

32:                                               ; preds = %25
  %33 = getelementptr inbounds nuw %"class.icu_77::StringTrieBuilder::SplitBranchNode", ptr %7, i32 0, i32 3
  %34 = load ptr, ptr %33, align 8, !tbaa !67
  %35 = load ptr, ptr %6, align 8, !tbaa !62
  %36 = getelementptr inbounds nuw %"class.icu_77::StringTrieBuilder::SplitBranchNode", ptr %35, i32 0, i32 3
  %37 = load ptr, ptr %36, align 8, !tbaa !67
  %38 = icmp eq ptr %34, %37
  br label %39

39:                                               ; preds = %32, %25, %15
  %40 = phi i1 [ false, %25 ], [ false, %15 ], [ %38, %32 ]
  store i1 %40, ptr %3, align 1
  call void @llvm.lifetime.end.p0(i64 8, ptr %6) #9
  br label %41

41:                                               ; preds = %39, %14, %10
  %42 = load i1, ptr %3, align 1
  ret i1 %42
}