; Function Attrs: mustprogress nofree nounwind willreturn memory(read, inaccessiblemem: none) uwtable
define noundef zeroext i1 @_ZNK6icu_7717StringTrieBuilder15SplitBranchNodeeqERKNS0_4NodeE(ptr noundef nonnull readonly align 8 dereferenceable(40) %0, ptr noundef nonnull readonly align 8 dereferenceable(16) %1) unnamed_addr #11 align 2 {
  %3 = icmp eq ptr %0, %1
  br i1 %3, label %_ZNK6icu_7717StringTrieBuilder4NodeeqERKS1_.exit.thread, label %4

4:                                                ; preds = %2
  %5 = load ptr, ptr %0, align 8, !tbaa !3
  %6 = getelementptr inbounds i8, ptr %5, i64 -8
  %7 = load ptr, ptr %6, align 8
  %8 = load ptr, ptr %1, align 8, !tbaa !3
  %9 = getelementptr inbounds i8, ptr %8, i64 -8
  %10 = load ptr, ptr %9, align 8
  %11 = getelementptr inbounds nuw i8, ptr %7, i64 8
  %12 = load ptr, ptr %11, align 8, !tbaa !52
  %13 = getelementptr inbounds nuw i8, ptr %10, i64 8
  %14 = load ptr, ptr %13, align 8, !tbaa !52
  %15 = icmp eq ptr %12, %14
  br i1 %15, label %_ZNK6icu_7717StringTrieBuilder4NodeeqERKS1_.exit, label %16

16:                                               ; preds = %4
  %17 = load i8, ptr %12, align 1, !tbaa !19
  %.not.i.i = icmp eq i8 %17, 42
  br i1 %.not.i.i, label %_ZNK6icu_7717StringTrieBuilder4NodeeqERKS1_.exit.thread, label %_ZNKSt9type_infoeqERKS_.exit.i

_ZNKSt9type_infoeqERKS_.exit.i:                   ; preds = %16
  %18 = load i8, ptr %14, align 1, !tbaa !19
  %19 = icmp eq i8 %18, 42
  %.idx.i.i.i = zext i1 %19 to i64
  %20 = getelementptr inbounds nuw i8, ptr %14, i64 %.idx.i.i.i
  %21 = tail call i32 @strcmp(ptr noundef nonnull dereferenceable(1) %12, ptr noundef nonnull dereferenceable(1) %20) #16
  %22 = icmp eq i32 %21, 0
  br i1 %22, label %_ZNK6icu_7717StringTrieBuilder4NodeeqERKS1_.exit, label %_ZNK6icu_7717StringTrieBuilder4NodeeqERKS1_.exit.thread

_ZNK6icu_7717StringTrieBuilder4NodeeqERKS1_.exit: ; preds = %4, %_ZNKSt9type_infoeqERKS_.exit.i
  %23 = getelementptr inbounds nuw i8, ptr %0, i64 8
  %24 = load i32, ptr %23, align 8, !tbaa !14
  %25 = getelementptr inbounds nuw i8, ptr %1, i64 8
  %26 = load i32, ptr %25, align 8, !tbaa !14
  %27 = icmp eq i32 %24, %26
  br i1 %27, label %28, label %_ZNK6icu_7717StringTrieBuilder4NodeeqERKS1_.exit.thread

28:                                               ; preds = %_ZNK6icu_7717StringTrieBuilder4NodeeqERKS1_.exit
  %29 = getelementptr inbounds nuw i8, ptr %0, i64 20
  %30 = load i16, ptr %29, align 4, !tbaa !47
  %31 = getelementptr inbounds nuw i8, ptr %1, i64 20
  %32 = load i16, ptr %31, align 4, !tbaa !47
  %33 = icmp eq i16 %30, %32
  br i1 %33, label %34, label %_ZNK6icu_7717StringTrieBuilder4NodeeqERKS1_.exit.thread

34:                                               ; preds = %28
  %35 = getelementptr inbounds nuw i8, ptr %0, i64 24
  %36 = load ptr, ptr %35, align 8, !tbaa !49
  %37 = getelementptr inbounds nuw i8, ptr %1, i64 24
  %38 = load ptr, ptr %37, align 8, !tbaa !49
  %39 = icmp eq ptr %36, %38
  br i1 %39, label %40, label %_ZNK6icu_7717StringTrieBuilder4NodeeqERKS1_.exit.thread

40:                                               ; preds = %34
  %41 = getelementptr inbounds nuw i8, ptr %0, i64 32
  %42 = load ptr, ptr %41, align 8, !tbaa !50
  %43 = getelementptr inbounds nuw i8, ptr %1, i64 32
  %44 = load ptr, ptr %43, align 8, !tbaa !50
  %45 = icmp eq ptr %42, %44
  br label %_ZNK6icu_7717StringTrieBuilder4NodeeqERKS1_.exit.thread

_ZNK6icu_7717StringTrieBuilder4NodeeqERKS1_.exit.thread: ; preds = %16, %_ZNKSt9type_infoeqERKS_.exit.i, %28, %34, %40, %_ZNK6icu_7717StringTrieBuilder4NodeeqERKS1_.exit, %2
  %.0 = phi i1 [ true, %2 ], [ false, %_ZNK6icu_7717StringTrieBuilder4NodeeqERKS1_.exit ], [ false, %34 ], [ false, %28 ], [ %45, %40 ], [ false, %_ZNKSt9type_infoeqERKS_.exit.i ], [ false, %16 ]
  ret i1 %.0
}